(i__main__
Brew
p1
(dp2
S'hopAAs'
p3
(dp4
S'Mosaic'
p5
F11.199999999999999
ssS'name'
p6
S'ALittleNightMosaic'
p7
sS'grains'
p8
(dp9
S'American 2-row'
p10
F3.5
sS'Belgian Pils'
p11
F6
sS'German Pilsner'
p12
F4.3125
ssS'hops'
p13
(lp14
(lp15
F1
ag5
aF1
aa(lp16
F60
ag5
aF1
aa(lp17
F30
ag5
aF1
aa(lp18
F15
ag5
aF1
aasS'og'
p19
F1.054
sS'abv'
p20
F5.9059366888277953
sS'fg'
p21
F1.01
sS'ibu'
p22
F68.021669127547867
sb.