(i__main__
Brew
p1
(dp2
S'hopAAs'
p3
(dp4
S'Fuggles'
p5
F4
ssS'name'
p6
S'Douberliner'
p7
sS'grains'
p8
(dp9
S'Pils'
p10
F10
sS'Wheat'
p11
F5
ssS'hops'
p12
(lp13
(lp14
F30
ag5
aF0.5
aasS'og'
p15
F1.032
sS'abv'
p16
F3.8765926141891951
sS'fg'
p17
F1.002
sS'ibu'
p18
F2.9048423513985067
sb.