(i__main__
Brew
p1
(dp2
S'hops'
p3
(lp4
(lp5
F90
aS'Columbus'
p6
aF1
aa(lp7
F30
aS'Azacca'
p8
aF0.69999999999999996
aa(lp9
F15
ag8
aF0.69999999999999996
aa(lp10
F1
ag8
aF0.59999999999999998
aa(lp11
F10
aS'Amarillo'
p12
aF0.80000000000000004
aa(lp13
F5
ag12
aF0.59999999999999998
aa(lp14
F0
ag12
aF0.69999999999999996
aasS'hopAAs'
p15
(dp16
g6
F16
sg8
F10.300000000000001
sg12
F9.5
ssS'name'
p17
S'Melrose2'
p18
sS'grains'
p19
(dp20
sS'ibu'
p21
F95.457108314638987
sb.