(i__main__
Brew
p1
(dp2
S'og'
p3
F1.0580000000000001
sS'abv'
p4
F6.2211287585763584
sS'name'
p5
S'Melroses and Thorns'
p6
sS'grains'
p7
(dp8
S'2-row'
p9
F14
sS'Carapils'
p10
F0.4375
sS'Honey Malt'
p11
F0.3125
sS'Crystal'
p12
F0.125
ssS'fg'
p13
F1.012
sb.