(i__main__
Brew
p1
(dp2
S'hopAAs'
p3
(dp4
S'centennial'
p5
F11
ssS'name'
p6
S'NELA_NEIPA'
p7
sS'grains'
p8
(dp9
S'2-row'
p10
F12
sS'Wheat'
p11
F2
ssS'hops'
p12
(lp13
(lp14
F70
ag5
aF1.3999999999999999
aasS'og'
p15
F1.054
sS'abv'
p16
F5.7774254201937758
sS'fg'
p17
F1.0109999999999999
sS'ibu'
p18
F45.796056238600805
sb.