(i__main__
Brew
p1
(dp2
S'hops'
p3
(lp4
(lp5
F60
aS'SorachiAce'
p6
aF0.40000000000000002
aa(lp7
F15
ag6
aF0.29999999999999999
aa(lp8
F5
ag6
aF0.40000000000000002
aa(lp9
F30
aS'Nelson'
p10
aF0.29999999999999999
aa(lp11
F5
ag10
aF0.69999999999999996
aasS'hopAAs'
p12
(dp13
g6
F12
sg10
F11.4
ssS'name'
p14
S'Nelson'
p15
sS'grains'
p16
(dp17
S'2-row'
p18
F8
sS'MarisOtter'
p19
F2
sS'Rye'
p20
F2.5
sS'acidMalt'
p21
F0.025000000000000001
sS'Carapils'
p22
F0.5
ssS'ibu'
p23
F31.995493284055755
sb.