(i__main__
Brew
p1
(dp2
S'hopAAs'
p3
(dp4
S'Nelson'
p5
F5.7000000000000002
sS'Willamette'
p6
F5.5
ssS'name'
p7
S'nelsonSaison'
p8
sS'grains'
p9
(dp10
S'BelPils'
p11
F6
sS'2Row'
p12
F3
sS'Wheat'
p13
F2
sS'SpecialB'
p14
F0.25
ssS'hops'
p15
(lp16
(lp17
F10
ag5
aF0.5
aa(lp18
F5
ag5
aF0.5
aa(lp19
F10
ag6
aF1.5
aasS'og'
p20
F1.05
sS'abv'
p21
F5.5952799096673376
sS'fg'
p22
F1.008
sS'ibu'
p23
F14.424797419599322
sb.