(i__main__
Brew
p1
(dp2
S'hops'
p3
(lp4
(lp5
F10
aS'Nelson'
p6
aF0.5
aa(lp7
F5
ag6
aF0.5
aa(lp8
F10
aS'Willamette'
p9
aF1.5
aasS'hopAAs'
p10
(dp11
g6
F5.7000000000000002
sg9
F5.5
ssS'name'
p12
S'nelsonSaison'
p13
sS'grains'
p14
(dp15
S'Wheat'
p16
F2
sS'2Row'
p17
F3
sS'BelPils'
p18
F6
sS'SpecialB'
p19
F0.25
ssS'ibu'
p20
F14.424797419599322
sb.