(i__main__
Brew
p1
(dp2
S'og'
p3
F1.0620000000000001
sS'abv'
p4
F6.8000325018282348
sS'name'
p5
S'NelsonFall2015'
p6
sS'grains'
p7
(dp8
S'2-row'
p9
F8.5
sS'@-row'
p10
F0
sS'MarisOtter'
p11
F1.625
sS'Carapils'
p12
F0.6875
sS'Rye'
p13
F2.5625
sS'Acid'
p14
F0.5
ssS'fg'
p15
F1.012
sb.