(i__main__
Brew
p1
(dp2
S'hopAAs'
p3
(dp4
S'Fuggles'
p5
F5
ssS'name'
p6
S'MikeBerliner'
p7
sS'grains'
p8
(dp9
S'Wheat'
p10
F3
sS'Piln'
p11
F6
ssS'hops'
p12
(lp13
(lp14
F30
ag5
aF0.5
aasS'og'
p15
F1.0349999999999999
sS'abv'
p16
F4.2815393832119168
sS'fg'
p17
F1.002
sS'ibu'
p18
F7.3938180049277262
sb.