(i__main__
Brew
p1
(dp2
S'og'
p3
F1.0429999999999999
sS'abv'
p4
F5.3776248090184477
sS'name'
p5
S'OctoBerliner'
p6
sS'grains'
p7
(dp8
S'Pils'
p9
F13.25
sS'Pis'
p10
F0
sS'Wheat'
p11
F6.75
ssS'fg'
p12
F1.002
sb.