(i__main__
Brew
p1
(dp2
S'hopAAs'
p3
(dp4
S'Simcoe'
p5
F12.300000000000001
ssS'name'
p6
S'row2hill56'
p7
sS'grains'
p8
(dp9
S'Maris Otter'
p10
F3.8999999999999999
sS'Belgian Pilsner'
p11
F8
sS'Caramel 20'
p12
F0.84999999999999998
ssS'hops'
p13
(lp14
(lp15
F90
ag5
aF0.55000000000000004
aa(lp16
F30
ag5
aF0.55000000000000004
aa(lp17
F0
ag5
aF1
aasS'og'
p18
F1.0600000000000001
sS'abv'
p19
F6.7676102235296254
sS'fg'
p20
F1.01
sS'ibu'
p21
F34.230086806283104
sb.