(i__main__
Brew
p1
(dp2
S'og'
p3
F1.0600000000000001
sS'abv'
p4
F6.8961278117348863
sS'name'
p5
S'TangerineDream'
p6
sS'grains'
p7
(dp8
S'MarisOtter'
p9
F2.5
sS'German Pilsener'
p10
F8.5
sS'Wheat'
p11
F1.5
ssS'fg'
p12
F1.0089999999999999
sb.